target datalayout = "e-m:e-p270:32:32-p271:32:32-p272:64:64-i64:64-i128:128-f80:128-n8:16:32:64-S128"
target triple = "x86_64-pc-linux-gnu"

%struct.LargeObjectDesc = type { i32, ptr, i32, i64, i32 }

@cookies = internal global ptr null, align 8
@cookies_size = internal global i32 0, align 4
@.str.1 = private unnamed_addr constant [36 x i8] c"invalid large-object descriptor: %d\00", align 1
@.str.2 = private unnamed_addr constant [13 x i8] c"be-fsstubs.c\00", align 1
@.str.4 = private unnamed_addr constant [54 x i8] c"large object descriptor %d was not opened for writing\00", align 1
@__func__.lo_truncate_internal = private unnamed_addr constant [21 x i8] c"lo_truncate_internal\00", align 1

; Function Attrs: nounwind uwtable
define internal void @lo_truncate_internal(i32 noundef %0, i64 noundef %1) #0 {
  %3 = alloca i32, align 4
  %4 = alloca i64, align 8
  %5 = alloca ptr, align 8
  store i32 %0, ptr %3, align 4
  store i64 %1, ptr %4, align 8
  call void @llvm.lifetime.start.p0(i64 8, ptr %5) #8
  %6 = load i32, ptr %3, align 4
  %7 = icmp slt i32 %6, 0
  br i1 %7, label %19, label %8

8:                                                ; preds = %2
  %9 = load i32, ptr %3, align 4
  %10 = load i32, ptr @cookies_size, align 4
  %11 = icmp sge i32 %9, %10
  br i1 %11, label %19, label %12

12:                                               ; preds = %8
  %13 = load ptr, ptr @cookies, align 8
  %14 = load i32, ptr %3, align 4
  %15 = sext i32 %14 to i64
  %16 = getelementptr inbounds ptr, ptr %13, i64 %15
  %17 = load ptr, ptr %16, align 8
  %18 = icmp eq ptr %17, null
  br i1 %18, label %19, label %32

19:                                               ; preds = %12, %8, %2
  br label %20

20:                                               ; preds = %19
  br i1 true, label %21, label %23

21:                                               ; preds = %20
  %22 = call zeroext i1 @errstart_cold(i32 noundef 21, ptr noundef null) #9
  br i1 %22, label %25, label %29

23:                                               ; preds = %20
  %24 = call zeroext i1 @errstart(i32 noundef 21, ptr noundef null)
  br i1 %24, label %25, label %29

25:                                               ; preds = %23, %21
  %26 = call i32 @errcode(i32 noundef 67137668)
  %27 = load i32, ptr %3, align 4
  %28 = call i32 (ptr, ...) @errmsg(ptr noundef @.str.1, i32 noundef %27)
  call void @errfinish(ptr noundef @.str.2, i32 noundef 565, ptr noundef @__func__.lo_truncate_internal)
  br label %29

29:                                               ; preds = %25, %23, %21
  unreachable

30:                                               ; No predecessors!
  br label %31

31:                                               ; preds = %30
  br label %32

32:                                               ; preds = %31, %12
  %33 = load ptr, ptr @cookies, align 8
  %34 = load i32, ptr %3, align 4
  %35 = sext i32 %34 to i64
  %36 = getelementptr inbounds ptr, ptr %33, i64 %35
  %37 = load ptr, ptr %36, align 8
  store ptr %37, ptr %5, align 8
  %38 = load ptr, ptr %5, align 8
  %39 = getelementptr inbounds nuw %struct.LargeObjectDesc, ptr %38, i32 0, i32 4
  %40 = load i32, ptr %39, align 8
  %41 = and i32 %40, 2
  %42 = icmp eq i32 %41, 0
  br i1 %42, label %43, label %56

43:                                               ; preds = %32
  br label %44

44:                                               ; preds = %43
  br i1 true, label %45, label %47

45:                                               ; preds = %44
  %46 = call zeroext i1 @errstart_cold(i32 noundef 21, ptr noundef null) #9
  br i1 %46, label %49, label %53

47:                                               ; preds = %44
  %48 = call zeroext i1 @errstart(i32 noundef 21, ptr noundef null)
  br i1 %48, label %49, label %53

49:                                               ; preds = %47, %45
  %50 = call i32 @errcode(i32 noundef 325)
  %51 = load i32, ptr %3, align 4
  %52 = call i32 (ptr, ...) @errmsg(ptr noundef @.str.4, i32 noundef %51)
  call void @errfinish(ptr noundef @.str.2, i32 noundef 573, ptr noundef @__func__.lo_truncate_internal)
  br label %53

53:                                               ; preds = %49, %47, %45
  unreachable

54:                                               ; No predecessors!
  br label %55

55:                                               ; preds = %54
  br label %56

56:                                               ; preds = %55, %32
  %57 = load ptr, ptr %5, align 8
  %58 = load i64, ptr %4, align 8
  call void @inv_truncate(ptr noundef %57, i64 noundef %58)
  call void @llvm.lifetime.end.p0(i64 8, ptr %5) #8
  ret void
}