; Function Attrs: nounwind uwtable
define internal fastcc void @lo_truncate_internal(i32 noundef %0, i64 noundef %1) unnamed_addr #0 {
  %3 = icmp sgt i32 %0, -1
  %4 = load i32, ptr @cookies_size, align 4
  %.not = icmp slt i32 %0, %4
  %or.cond = select i1 %3, i1 %.not, i1 false
  br i1 %or.cond, label %5, label %11

5:                                                ; preds = %2
  %6 = load ptr, ptr @cookies, align 8
  %7 = zext nneg i32 %0 to i64
  %8 = getelementptr inbounds nuw ptr, ptr %6, i64 %7
  %9 = load ptr, ptr %8, align 8
  %10 = icmp eq ptr %9, null
  br i1 %10, label %11, label %15

11:                                               ; preds = %5, %2
  %12 = tail call zeroext i1 @errstart_cold(i32 noundef 21, ptr noundef null) #11
  tail call void @llvm.assume(i1 %12)
  %13 = tail call i32 @errcode(i32 noundef 67137668) #10
  %14 = tail call i32 (ptr, ...) @errmsg(ptr noundef nonnull @.str.1, i32 noundef %0) #10
  tail call void @errfinish(ptr noundef nonnull @.str.2, i32 noundef 565, ptr noundef nonnull @__func__.lo_truncate_internal) #10
  unreachable

15:                                               ; preds = %5
  %16 = getelementptr inbounds nuw i8, ptr %9, i64 32
  %17 = load i32, ptr %16, align 8
  %18 = and i32 %17, 2
  %19 = icmp eq i32 %18, 0
  br i1 %19, label %20, label %24

20:                                               ; preds = %15
  %21 = tail call zeroext i1 @errstart_cold(i32 noundef 21, ptr noundef null) #11
  tail call void @llvm.assume(i1 %21)
  %22 = tail call i32 @errcode(i32 noundef 325) #10
  %23 = tail call i32 (ptr, ...) @errmsg(ptr noundef nonnull @.str.4, i32 noundef %0) #10
  tail call void @errfinish(ptr noundef nonnull @.str.2, i32 noundef 573, ptr noundef nonnull @__func__.lo_truncate_internal) #10
  unreachable

24:                                               ; preds = %15
  tail call void @inv_truncate(ptr noundef nonnull %9, i64 noundef %1) #10
  ret void
}